target datalayout = "e-m:e-p270:32:32-p271:32:32-p272:64:64-i64:64-i128:128-f80:128-n8:16:32:64-S128"
target triple = "x86_64-pc-linux-gnu"

%"struct.std::atomic" = type { %"struct.std::__atomic_base" }
%"struct.std::__atomic_base" = type { i8 }
%"class.std::initializer_list" = type { ptr, i64 }

@_ZN3tbb6detail2r1L30initialize_system_topology_ptrE = internal global ptr null, align 8
@_ZN3tbb6detail2r115system_topology12_GLOBAL__N_116numa_nodes_countE = internal global i32 0, align 4
@_ZN3tbb6detail2r115system_topology12_GLOBAL__N_118numa_nodes_indexesE = internal global ptr null, align 8
@_ZN3tbb6detail2r115system_topology12_GLOBAL__N_116core_types_countE = internal global i32 0, align 4
@_ZN3tbb6detail2r115system_topology12_GLOBAL__N_118core_types_indexesE = internal global ptr null, align 8
@.str.5 = private unnamed_addr constant [8 x i8] c"TBBBIND\00", align 1
@_ZZN3tbb6detail2r115system_topology19initialization_implEvE11dummy_index = internal global i32 -1, align 4
@.str.6 = private unnamed_addr constant [12 x i8] c"UNAVAILABLE\00", align 1
@_ZN3tbb6detail2r114__TBB_InitOnce18InitializationDoneE = external global %"struct.std::atomic", align 1
@constinit = private constant [3 x ptr] [ptr @.str.17, ptr @.str.18, ptr @.str.19], align 8

; Function Attrs: mustprogress nounwind sspstrong uwtable
define linkonce_odr noundef i32 @_ZStanSt12memory_orderSt23__memory_order_modifier(i32 noundef %0, i32 noundef %1) #3 comdat {
  %3 = alloca i32, align 4
  %4 = alloca i32, align 4
  store i32 %0, ptr %3, align 4, !tbaa !184
  store i32 %1, ptr %4, align 4, !tbaa !186
  %5 = load i32, ptr %3, align 4, !tbaa !184
  %6 = load i32, ptr %4, align 4, !tbaa !186
  %7 = and i32 %5, %6
  ret i32 %7
}

; Function Attrs: alwaysinline mustprogress nounwind sspstrong uwtable
define linkonce_odr noundef zeroext i1 @_ZNKSt13__atomic_baseIbE4loadESt12memory_order(ptr noundef nonnull align 1 dereferenceable(1) %0, i32 noundef %1) #13 comdat align 2 {
  %3 = alloca ptr, align 8
  %4 = alloca i32, align 4
  %5 = alloca i32, align 4
  %6 = alloca i8, align 1
  store ptr %0, ptr %3, align 8, !tbaa !177
  store i32 %1, ptr %4, align 4, !tbaa !184
  %7 = load ptr, ptr %3, align 8
  call void @llvm.lifetime.start.p0(i64 4, ptr %5) #12
  %8 = load i32, ptr %4, align 4, !tbaa !184
  %9 = call noundef i32 @_ZStanSt12memory_orderSt23__memory_order_modifier(i32 noundef %8, i32 noundef 65535)
  store i32 %9, ptr %5, align 4, !tbaa !184
  br label %10

10:                                               ; preds = %2
  br label %11

11:                                               ; preds = %10
  br label %12

12:                                               ; preds = %11
  br label %13

13:                                               ; preds = %12
  br label %14

14:                                               ; preds = %13
  br label %15

15:                                               ; preds = %14
  %16 = getelementptr inbounds nuw %"struct.std::__atomic_base", ptr %7, i32 0, i32 0
  %17 = load i32, ptr %4, align 4, !tbaa !184
  switch i32 %17, label %18 [
    i32 1, label %20
    i32 2, label %20
    i32 5, label %22
  ]

18:                                               ; preds = %15
  %19 = load atomic i8, ptr %16 monotonic, align 1
  store i8 %19, ptr %6, align 1
  br label %24

20:                                               ; preds = %15, %15
  %21 = load atomic i8, ptr %16 acquire, align 1
  store i8 %21, ptr %6, align 1
  br label %24

22:                                               ; preds = %15
  %23 = load atomic i8, ptr %16 seq_cst, align 1
  store i8 %23, ptr %6, align 1
  br label %24

24:                                               ; preds = %22, %20, %18
  %25 = load i8, ptr %6, align 1, !tbaa !7, !range !84, !noundef !85
  %26 = trunc i8 %25 to i1
  call void @llvm.lifetime.end.p0(i64 4, ptr %5) #12
  ret i1 %26
}

; Function Attrs: mustprogress nounwind sspstrong uwtable
define linkonce_odr noundef i64 @_ZNKSt16initializer_listIPKcE4sizeEv(ptr noundef nonnull align 8 dereferenceable(16) %0) #3 comdat align 2 {
  %2 = alloca ptr, align 8
  store ptr %0, ptr %2, align 8, !tbaa !163
  %3 = load ptr, ptr %2, align 8
  %4 = getelementptr inbounds nuw %"class.std::initializer_list", ptr %3, i32 0, i32 1
  %5 = load i64, ptr %4, align 8, !tbaa !162
  ret i64 %5
}

; Function Attrs: mustprogress nounwind sspstrong uwtable
define linkonce_odr noundef zeroext i1 @_ZNKSt6atomicIbE4loadESt12memory_order(ptr noundef nonnull align 1 dereferenceable(1) %0, i32 noundef %1) #3 comdat align 2 {
  %3 = alloca ptr, align 8
  %4 = alloca i32, align 4
  store ptr %0, ptr %3, align 8, !tbaa !175
  store i32 %1, ptr %4, align 4, !tbaa !184
  %5 = load ptr, ptr %3, align 8
  %6 = getelementptr inbounds nuw %"struct.std::atomic", ptr %5, i32 0, i32 0
  %7 = load i32, ptr %4, align 4, !tbaa !184
  %8 = call noundef zeroext i1 @_ZNKSt13__atomic_baseIbE4loadESt12memory_order(ptr noundef nonnull align 1 dereferenceable(1) %6, i32 noundef %7) #12
  ret i1 %8
}

; Function Attrs: mustprogress nounwind sspstrong uwtable
define linkonce_odr noundef ptr @_ZNKSt16initializer_listIPKcE3endEv(ptr noundef nonnull align 8 dereferenceable(16) %0) #3 comdat align 2 {
  %2 = alloca ptr, align 8
  store ptr %0, ptr %2, align 8, !tbaa !163
  %3 = load ptr, ptr %2, align 8
  %4 = call noundef ptr @_ZNKSt16initializer_listIPKcE5beginEv(ptr noundef nonnull align 8 dereferenceable(16) %3) #12
  %5 = call noundef i64 @_ZNKSt16initializer_listIPKcE4sizeEv(ptr noundef nonnull align 8 dereferenceable(16) %3) #12
  %6 = getelementptr inbounds nuw ptr, ptr %4, i64 %5
  ret ptr %6
}

; Function Attrs: mustprogress nounwind sspstrong uwtable
define linkonce_odr noundef ptr @_ZNKSt16initializer_listIPKcE5beginEv(ptr noundef nonnull align 8 dereferenceable(16) %0) #3 comdat align 2 {
  %2 = alloca ptr, align 8
  store ptr %0, ptr %2, align 8, !tbaa !163
  %3 = load ptr, ptr %2, align 8
  %4 = getelementptr inbounds nuw %"class.std::initializer_list", ptr %3, i32 0, i32 0
  %5 = load ptr, ptr %4, align 8, !tbaa !159
  ret ptr %5
}

; Function Attrs: mustprogress nounwind sspstrong uwtable
define linkonce_odr noundef zeroext i1 @_ZN3tbb6detail2r114__TBB_InitOnce19initialization_doneEv() #3 comdat align 2 {
  %1 = call noundef zeroext i1 @_ZNKSt6atomicIbE4loadESt12memory_order(ptr noundef nonnull align 1 dereferenceable(1) @_ZN3tbb6detail2r114__TBB_InitOnce18InitializationDoneE, i32 noundef 2) #12
  ret i1 %1
}

; Function Attrs: mustprogress nounwind sspstrong uwtable
define internal noundef i32 @_ZN3tbb6detail2r115system_topology12_GLOBAL__N_120processor_groups_numEv() #3 {
  ret i32 1
}

; Function Attrs: mustprogress sspstrong uwtable
define internal noundef ptr @_ZN3tbb6detail2r115system_topology12_GLOBAL__N_126load_tbbbind_shared_objectEv() #1 {
  %1 = alloca ptr, align 8
  %2 = alloca ptr, align 8
  %3 = alloca %"class.std::initializer_list", align 8
  %4 = alloca [3 x ptr], align 8
  %5 = alloca ptr, align 8
  %6 = alloca ptr, align 8
  %7 = alloca i32, align 4
  %8 = alloca ptr, align 8
  call void @llvm.lifetime.start.p0(i64 8, ptr %2) #12
  call void @llvm.lifetime.start.p0(i64 16, ptr %3) #12
  call void @llvm.lifetime.start.p0(i64 24, ptr %4) #12
  call void @llvm.memcpy.p0.p0.i64(ptr align 8 %4, ptr align 8 @constinit, i64 24, i1 false), !tbaa.struct !157
  %9 = getelementptr inbounds nuw %"class.std::initializer_list", ptr %3, i32 0, i32 0
  store ptr %4, ptr %9, align 8, !tbaa !159
  %10 = getelementptr inbounds nuw %"class.std::initializer_list", ptr %3, i32 0, i32 1
  store i64 3, ptr %10, align 8, !tbaa !162
  store ptr %3, ptr %2, align 8, !tbaa !163
  call void @llvm.lifetime.start.p0(i64 8, ptr %5) #12
  %11 = load ptr, ptr %2, align 8, !tbaa !163
  %12 = call noundef ptr @_ZNKSt16initializer_listIPKcE5beginEv(ptr noundef nonnull align 8 dereferenceable(16) %11) #12
  store ptr %12, ptr %5, align 8, !tbaa !165
  call void @llvm.lifetime.start.p0(i64 8, ptr %6) #12
  %13 = load ptr, ptr %2, align 8, !tbaa !163
  %14 = call noundef ptr @_ZNKSt16initializer_listIPKcE3endEv(ptr noundef nonnull align 8 dereferenceable(16) %13) #12
  store ptr %14, ptr %6, align 8, !tbaa !165
  br label %15

15:                                               ; preds = %32, %0
  %16 = load ptr, ptr %5, align 8, !tbaa !165
  %17 = load ptr, ptr %6, align 8, !tbaa !165
  %18 = icmp ne ptr %16, %17
  br i1 %18, label %20, label %19

19:                                               ; preds = %15
  store i32 2, ptr %7, align 4
  br label %35

20:                                               ; preds = %15
  call void @llvm.lifetime.start.p0(i64 8, ptr %8) #12
  %21 = load ptr, ptr %5, align 8, !tbaa !165
  store ptr %21, ptr %8, align 8, !tbaa !165
  %22 = load ptr, ptr %8, align 8, !tbaa !165
  %23 = load ptr, ptr %22, align 8, !tbaa !114
  %24 = call noundef zeroext i1 @_ZN3tbb6detail2r112dynamic_linkEPKcPKNS1_23dynamic_link_descriptorEmPPvi(ptr noundef %23, ptr noundef @_ZN3tbb6detail2r1L16TbbBindLinkTableE, i64 noundef 7, ptr noundef null, i32 noundef 10)
  br i1 %24, label %25, label %28

25:                                               ; preds = %20
  %26 = load ptr, ptr %8, align 8, !tbaa !165
  %27 = load ptr, ptr %26, align 8, !tbaa !114
  store ptr %27, ptr %1, align 8
  store i32 1, ptr %7, align 4
  br label %29

28:                                               ; preds = %20
  store i32 0, ptr %7, align 4
  br label %29

29:                                               ; preds = %28, %25
  call void @llvm.lifetime.end.p0(i64 8, ptr %8) #12
  %30 = load i32, ptr %7, align 4
  switch i32 %30, label %35 [
    i32 0, label %31
  ]

31:                                               ; preds = %29
  br label %32

32:                                               ; preds = %31
  %33 = load ptr, ptr %5, align 8, !tbaa !165
  %34 = getelementptr inbounds nuw ptr, ptr %33, i32 1
  store ptr %34, ptr %5, align 8, !tbaa !165
  br label %15

35:                                               ; preds = %29, %19
  call void @llvm.lifetime.end.p0(i64 8, ptr %6) #12
  call void @llvm.lifetime.end.p0(i64 8, ptr %5) #12
  call void @llvm.lifetime.end.p0(i64 24, ptr %4) #12
  call void @llvm.lifetime.end.p0(i64 16, ptr %3) #12
  call void @llvm.lifetime.end.p0(i64 8, ptr %2) #12
  %36 = load i32, ptr %7, align 4
  switch i32 %36, label %40 [
    i32 2, label %37
    i32 1, label %38
  ]

37:                                               ; preds = %35
  store ptr null, ptr %1, align 8
  br label %38

38:                                               ; preds = %37, %35
  %39 = load ptr, ptr %1, align 8
  ret ptr %39

40:                                               ; preds = %35
  unreachable
}

; Function Attrs: mustprogress sspstrong uwtable
define void @_ZN3tbb6detail2r18governor13one_time_initEv() #1 align 2 {
  %1 = call noundef zeroext i1 @_ZN3tbb6detail2r114__TBB_InitOnce19initialization_doneEv()
  br i1 %1, label %3, label %2

2:                                                ; preds = %0
  call void @_ZN3tbb6detail2r123DoOneTimeInitializationEv()
  br label %3

3:                                                ; preds = %2, %0
  ret void
}

; Function Attrs: mustprogress sspstrong uwtable
define void @_ZN3tbb6detail2r115system_topology19initialization_implEv() #1 {
  %1 = alloca ptr, align 8
  %2 = alloca i32, align 4
  call void @_ZN3tbb6detail2r18governor13one_time_initEv()
  call void @llvm.lifetime.start.p0(i64 8, ptr %1) #12
  %3 = call noundef ptr @_ZN3tbb6detail2r115system_topology12_GLOBAL__N_126load_tbbbind_shared_objectEv()
  store ptr %3, ptr %1, align 8, !tbaa !114
  %4 = load ptr, ptr %1, align 8, !tbaa !114
  %5 = icmp ne ptr %4, null
  br i1 %5, label %6, label %11

6:                                                ; preds = %0
  %7 = load ptr, ptr @_ZN3tbb6detail2r1L30initialize_system_topology_ptrE, align 8, !tbaa !12
  %8 = call noundef i32 @_ZN3tbb6detail2r115system_topology12_GLOBAL__N_120processor_groups_numEv()
  %9 = sext i32 %8 to i64
  call void %7(i64 noundef %9, ptr noundef nonnull align 4 dereferenceable(4) @_ZN3tbb6detail2r115system_topology12_GLOBAL__N_116numa_nodes_countE, ptr noundef nonnull align 8 dereferenceable(8) @_ZN3tbb6detail2r115system_topology12_GLOBAL__N_118numa_nodes_indexesE, ptr noundef nonnull align 4 dereferenceable(4) @_ZN3tbb6detail2r115system_topology12_GLOBAL__N_116core_types_countE, ptr noundef nonnull align 8 dereferenceable(8) @_ZN3tbb6detail2r115system_topology12_GLOBAL__N_118core_types_indexesE)
  %10 = load ptr, ptr %1, align 8, !tbaa !114
  call void (ptr, ptr, ...) @_ZN3tbb6detail2r121PrintExtraVersionInfoEPKcS3_z(ptr noundef @.str.5, ptr noundef %10)
  store i32 1, ptr %2, align 4
  br label %12

11:                                               ; preds = %0
  store i32 0, ptr %2, align 4
  br label %12

12:                                               ; preds = %11, %6
  call void @llvm.lifetime.end.p0(i64 8, ptr %1) #12
  %13 = load i32, ptr %2, align 4
  switch i32 %13, label %16 [
    i32 0, label %14
    i32 1, label %15
  ]

14:                                               ; preds = %12
  store i32 1, ptr @_ZN3tbb6detail2r115system_topology12_GLOBAL__N_116numa_nodes_countE, align 4, !tbaa !3
  store ptr @_ZZN3tbb6detail2r115system_topology19initialization_implEvE11dummy_index, ptr @_ZN3tbb6detail2r115system_topology12_GLOBAL__N_118numa_nodes_indexesE, align 8, !tbaa !155
  store i32 1, ptr @_ZN3tbb6detail2r115system_topology12_GLOBAL__N_116core_types_countE, align 4, !tbaa !3
  store ptr @_ZZN3tbb6detail2r115system_topology19initialization_implEvE11dummy_index, ptr @_ZN3tbb6detail2r115system_topology12_GLOBAL__N_118core_types_indexesE, align 8, !tbaa !155
  call void (ptr, ptr, ...) @_ZN3tbb6detail2r121PrintExtraVersionInfoEPKcS3_z(ptr noundef @.str.5, ptr noundef @.str.6)
  br label %15

15:                                               ; preds = %14, %12
  ret void

16:                                               ; preds = %12
  unreachable
}