; Function Attrs: mustprogress sspstrong uwtable
define void @_ZN3tbb6detail2r115system_topology19initialization_implEv() local_unnamed_addr #1 {
  %1 = load atomic i8, ptr @_ZN3tbb6detail2r114__TBB_InitOnce18InitializationDoneE acquire, align 1
  %2 = trunc i8 %1 to i1
  br i1 %2, label %_ZN3tbb6detail2r18governor13one_time_initEv.exit.preheader, label %3

3:                                                ; preds = %0
  tail call void @_ZN3tbb6detail2r123DoOneTimeInitializationEv()
  br label %_ZN3tbb6detail2r18governor13one_time_initEv.exit.preheader

_ZN3tbb6detail2r18governor13one_time_initEv.exit.preheader: ; preds = %0, %3
  br label %_ZN3tbb6detail2r18governor13one_time_initEv.exit

4:                                                ; preds = %_ZN3tbb6detail2r18governor13one_time_initEv.exit
  %.012.add.i = add nuw nsw i64 %.012.idx16.i, 8
  %.not.i = icmp eq i64 %.012.add.i, 24
  br i1 %.not.i, label %_ZN3tbb6detail2r115system_topology12_GLOBAL__N_126load_tbbbind_shared_objectEv.exit.thread, label %_ZN3tbb6detail2r18governor13one_time_initEv.exit

_ZN3tbb6detail2r18governor13one_time_initEv.exit: ; preds = %_ZN3tbb6detail2r18governor13one_time_initEv.exit.preheader, %4
  %.012.idx16.i = phi i64 [ %.012.add.i, %4 ], [ 0, %_ZN3tbb6detail2r18governor13one_time_initEv.exit.preheader ]
  %.012.ptr17.i = getelementptr inbounds nuw i8, ptr @constinit, i64 %.012.idx16.i
  %5 = load ptr, ptr %.012.ptr17.i, align 8, !tbaa !125
  %6 = tail call noundef zeroext i1 @_ZN3tbb6detail2r112dynamic_linkEPKcPKNS1_23dynamic_link_descriptorEmPPvi(ptr noundef %5, ptr noundef nonnull @_ZN3tbb6detail2r1L16TbbBindLinkTableE, i64 noundef 7, ptr noundef null, i32 noundef 10)
  br i1 %6, label %_ZN3tbb6detail2r115system_topology12_GLOBAL__N_126load_tbbbind_shared_objectEv.exit, label %4

_ZN3tbb6detail2r115system_topology12_GLOBAL__N_126load_tbbbind_shared_objectEv.exit: ; preds = %_ZN3tbb6detail2r18governor13one_time_initEv.exit
  %.not.not = icmp eq ptr %5, null
  br i1 %.not.not, label %_ZN3tbb6detail2r115system_topology12_GLOBAL__N_126load_tbbbind_shared_objectEv.exit.thread, label %7

7:                                                ; preds = %_ZN3tbb6detail2r115system_topology12_GLOBAL__N_126load_tbbbind_shared_objectEv.exit
  %8 = load ptr, ptr @_ZN3tbb6detail2r1L30initialize_system_topology_ptrE, align 8, !tbaa !98
  tail call void %8(i64 noundef 1, ptr noundef nonnull align 4 dereferenceable(4) @_ZN3tbb6detail2r115system_topology12_GLOBAL__N_116numa_nodes_countE, ptr noundef nonnull align 8 dereferenceable(8) @_ZN3tbb6detail2r115system_topology12_GLOBAL__N_118numa_nodes_indexesE, ptr noundef nonnull align 4 dereferenceable(4) @_ZN3tbb6detail2r115system_topology12_GLOBAL__N_116core_types_countE, ptr noundef nonnull align 8 dereferenceable(8) @_ZN3tbb6detail2r115system_topology12_GLOBAL__N_118core_types_indexesE)
  br label %9

_ZN3tbb6detail2r115system_topology12_GLOBAL__N_126load_tbbbind_shared_objectEv.exit.thread: ; preds = %4, %_ZN3tbb6detail2r115system_topology12_GLOBAL__N_126load_tbbbind_shared_objectEv.exit
  store i32 1, ptr @_ZN3tbb6detail2r115system_topology12_GLOBAL__N_116numa_nodes_countE, align 4, !tbaa !102
  store ptr @_ZZN3tbb6detail2r115system_topology19initialization_implEvE11dummy_index, ptr @_ZN3tbb6detail2r115system_topology12_GLOBAL__N_118numa_nodes_indexesE, align 8, !tbaa !136
  store i32 1, ptr @_ZN3tbb6detail2r115system_topology12_GLOBAL__N_116core_types_countE, align 4, !tbaa !102
  store ptr @_ZZN3tbb6detail2r115system_topology19initialization_implEvE11dummy_index, ptr @_ZN3tbb6detail2r115system_topology12_GLOBAL__N_118core_types_indexesE, align 8, !tbaa !136
  br label %9

9:                                                ; preds = %7, %_ZN3tbb6detail2r115system_topology12_GLOBAL__N_126load_tbbbind_shared_objectEv.exit.thread
  %.lcssa.sink = phi ptr [ %5, %7 ], [ @.str.6, %_ZN3tbb6detail2r115system_topology12_GLOBAL__N_126load_tbbbind_shared_objectEv.exit.thread ]
  tail call void (ptr, ptr, ...) @_ZN3tbb6detail2r121PrintExtraVersionInfoEPKcS3_z(ptr noundef nonnull @.str.5, ptr noundef nonnull %.lcssa.sink)
  ret void
}